target datalayout = "e-m:e-p270:32:32-p271:32:32-p272:64:64-i64:64-i128:128-f80:128-n8:16:32:64-S128"
target triple = "x86_64-pc-linux-gnu"

%"class.ade::ExecutionEngine::LazyPassWrapper" = type <{ %"class.ade::IGraphListener", ptr, i8, [7 x i8] }>
%"class.ade::IGraphListener" = type { ptr }

; Function Attrs: mustprogress nounwind uwtable
define hidden noundef zeroext i1 @_ZNK3ade15ExecutionEngine15LazyPassWrapper7isFirstEv(ptr noundef nonnull align 8 dereferenceable(17) %0) #1 align 2 {
  %2 = alloca ptr, align 8
  store ptr %0, ptr %2, align 8, !tbaa !58
  %3 = load ptr, ptr %2, align 8
  %4 = getelementptr inbounds nuw %"class.ade::ExecutionEngine::LazyPassWrapper", ptr %3, i32 0, i32 1
  %5 = load ptr, ptr %4, align 8, !tbaa !155
  %6 = icmp eq ptr null, %5
  ret i1 %6
}

; Function Attrs: mustprogress uwtable
define hidden void @_ZN3ade15ExecutionEngine15LazyPassWrapper5resetEv(ptr noundef nonnull align 8 dereferenceable(17) %0) #0 align 2 {
  %2 = alloca ptr, align 8
  store ptr %0, ptr %2, align 8, !tbaa !58
  %3 = load ptr, ptr %2, align 8
  %4 = getelementptr inbounds nuw %"class.ade::ExecutionEngine::LazyPassWrapper", ptr %3, i32 0, i32 2
  store i8 0, ptr %4, align 8, !tbaa !152
  %5 = call noundef zeroext i1 @_ZNK3ade15ExecutionEngine15LazyPassWrapper7isFirstEv(ptr noundef nonnull align 8 dereferenceable(17) %3)
  br i1 %5, label %9, label %6

6:                                                ; preds = %1
  %7 = getelementptr inbounds nuw %"class.ade::ExecutionEngine::LazyPassWrapper", ptr %3, i32 0, i32 1
  %8 = load ptr, ptr %7, align 8, !tbaa !155
  call void @_ZN3ade15ExecutionEngine15LazyPassWrapper5resetEv(ptr noundef nonnull align 8 dereferenceable(17) %8)
  br label %9

9:                                                ; preds = %6, %1
  ret void
}