; Function Attrs: mustprogress nofree norecurse nosync nounwind memory(readwrite, inaccessiblemem: none) uwtable
define hidden void @_ZN3ade15ExecutionEngine15LazyPassWrapper5resetEv(ptr noundef nonnull align 8 captures(none) dereferenceable(17) initializes((16, 17)) %0) local_unnamed_addr #5 align 2 {
  br label %tailrecurse

tailrecurse:                                      ; preds = %tailrecurse, %1
  %.tr = phi ptr [ %0, %1 ], [ %4, %tailrecurse ]
  %2 = getelementptr inbounds nuw i8, ptr %.tr, i64 16
  store i8 0, ptr %2, align 8, !tbaa !86
  %3 = getelementptr inbounds nuw i8, ptr %.tr, i64 8
  %4 = load ptr, ptr %3, align 8, !tbaa !90
  %5 = icmp eq ptr %4, null
  br i1 %5, label %6, label %tailrecurse

6:                                                ; preds = %tailrecurse
  ret void
}